target datalayout = "e-m:e-p270:32:32-p271:32:32-p272:64:64-i64:64-i128:128-f80:128-n8:16:32:64-S128"
target triple = "x86_64-pc-linux-gnu"

%struct.message = type { ptr, i32, i32, ptr, ptr, ptr, ptr, ptr, ptr, i64, i32, ptr, ptr, ptr, ptr, ptr, i8, i8, i8, i8, ptr }
%struct.text = type { ptr, ptr }
%struct.cli_ctx_tag = type { ptr, ptr, ptr, ptr, ptr, ptr, ptr, i64, ptr, i32, i32, ptr, i32, i32, ptr, [16 x i8], ptr, ptr, ptr, ptr, ptr, ptr, %struct.timeval, i8, i8 }
%struct.timeval = type { i64, i64 }

@.str.83 = private unnamed_addr constant [5 x i8] c"7bit\00", align 1
@messageIsEncoding.encoding = internal constant [26 x i8] c"Content-Transfer-Encoding\00", align 16
@messageIsEncoding.binhex = internal constant [46 x i8] c"(This file must be converted with BinHex 4.0)\00", align 16
@.str.91 = private unnamed_addr constant [11 x i8] c"Received: \00", align 1
@.str.92 = private unnamed_addr constant [7 x i8] c"BinHex\00", align 1
@.str.93 = private unnamed_addr constant [14 x i8] c"=ybegin line=\00", align 1

; Function Attrs: nounwind uwtable
define internal void @messageIsEncoding(ptr noundef %0) #0 {
  %2 = alloca ptr, align 8
  %3 = alloca ptr, align 8
  store ptr %0, ptr %2, align 8
  %4 = load ptr, ptr %2, align 8
  %5 = getelementptr inbounds %struct.message, ptr %4, i32 0, i32 7
  %6 = load ptr, ptr %5, align 8
  %7 = getelementptr inbounds %struct.text, ptr %6, i32 0, i32 0
  %8 = load ptr, ptr %7, align 8
  %9 = call ptr @lineGetData(ptr noundef %8)
  store ptr %9, ptr %3, align 8
  %10 = load ptr, ptr %2, align 8
  %11 = getelementptr inbounds %struct.message, ptr %10, i32 0, i32 14
  %12 = load ptr, ptr %11, align 8
  %13 = icmp eq ptr %12, null
  br i1 %13, label %14, label %28

14:                                               ; preds = %1
  %15 = load ptr, ptr %3, align 8
  %16 = call i32 @strncasecmp(ptr noundef %15, ptr noundef @messageIsEncoding.encoding, i64 noundef 25) #13
  %17 = icmp eq i32 %16, 0
  br i1 %17, label %18, label %28

18:                                               ; preds = %14
  %19 = load ptr, ptr %3, align 8
  %20 = call ptr @strstr(ptr noundef %19, ptr noundef @.str.83) #13
  %21 = icmp eq ptr %20, null
  br i1 %21, label %22, label %28

22:                                               ; preds = %18
  %23 = load ptr, ptr %2, align 8
  %24 = getelementptr inbounds %struct.message, ptr %23, i32 0, i32 7
  %25 = load ptr, ptr %24, align 8
  %26 = load ptr, ptr %2, align 8
  %27 = getelementptr inbounds %struct.message, ptr %26, i32 0, i32 14
  store ptr %25, ptr %27, align 8
  br label %96

28:                                               ; preds = %18, %14, %1
  %29 = load ptr, ptr %2, align 8
  %30 = getelementptr inbounds %struct.message, ptr %29, i32 0, i32 11
  %31 = load ptr, ptr %30, align 8
  %32 = icmp eq ptr %31, null
  br i1 %32, label %33, label %59

33:                                               ; preds = %28
  %34 = load ptr, ptr %2, align 8
  %35 = getelementptr inbounds %struct.message, ptr %34, i32 0, i32 8
  %36 = load ptr, ptr %35, align 8
  %37 = icmp ne ptr %36, null
  br i1 %37, label %38, label %59

38:                                               ; preds = %33
  %39 = load ptr, ptr %3, align 8
  %40 = call i32 @strncasecmp(ptr noundef %39, ptr noundef @.str.91, i64 noundef 10) #13
  %41 = icmp eq i32 %40, 0
  br i1 %41, label %42, label %59

42:                                               ; preds = %38
  %43 = load ptr, ptr %3, align 8
  %44 = load ptr, ptr %3, align 8
  %45 = call i64 @strlen(ptr noundef %44) #13
  %46 = load ptr, ptr %2, align 8
  %47 = getelementptr inbounds %struct.message, ptr %46, i32 0, i32 8
  %48 = load ptr, ptr %47, align 8
  %49 = getelementptr inbounds %struct.cli_ctx_tag, ptr %48, i32 0, i32 6
  %50 = load ptr, ptr %49, align 8
  %51 = call i32 @cli_compare_ftm_file(ptr noundef %43, i64 noundef %45, ptr noundef %50)
  %52 = icmp eq i32 %51, 561
  br i1 %52, label %53, label %59

53:                                               ; preds = %42
  %54 = load ptr, ptr %2, align 8
  %55 = getelementptr inbounds %struct.message, ptr %54, i32 0, i32 7
  %56 = load ptr, ptr %55, align 8
  %57 = load ptr, ptr %2, align 8
  %58 = getelementptr inbounds %struct.message, ptr %57, i32 0, i32 11
  store ptr %56, ptr %58, align 8
  br label %95

59:                                               ; preds = %42, %38, %33, %28
  %60 = load ptr, ptr %2, align 8
  %61 = getelementptr inbounds %struct.message, ptr %60, i32 0, i32 12
  %62 = load ptr, ptr %61, align 8
  %63 = icmp eq ptr %62, null
  br i1 %63, label %64, label %78

64:                                               ; preds = %59
  %65 = load ptr, ptr %3, align 8
  %66 = call ptr @strstr(ptr noundef %65, ptr noundef @.str.92) #13
  %67 = icmp ne ptr %66, null
  br i1 %67, label %68, label %78

68:                                               ; preds = %64
  %69 = load ptr, ptr %3, align 8
  %70 = call i32 @simil(ptr noundef %69, ptr noundef @messageIsEncoding.binhex)
  %71 = icmp sgt i32 %70, 90
  br i1 %71, label %72, label %78

72:                                               ; preds = %68
  %73 = load ptr, ptr %2, align 8
  %74 = getelementptr inbounds %struct.message, ptr %73, i32 0, i32 7
  %75 = load ptr, ptr %74, align 8
  %76 = load ptr, ptr %2, align 8
  %77 = getelementptr inbounds %struct.message, ptr %76, i32 0, i32 12
  store ptr %75, ptr %77, align 8
  br label %94

78:                                               ; preds = %68, %64, %59
  %79 = load ptr, ptr %2, align 8
  %80 = getelementptr inbounds %struct.message, ptr %79, i32 0, i32 13
  %81 = load ptr, ptr %80, align 8
  %82 = icmp eq ptr %81, null
  br i1 %82, label %83, label %93

83:                                               ; preds = %78
  %84 = load ptr, ptr %3, align 8
  %85 = call i32 @strncmp(ptr noundef %84, ptr noundef @.str.93, i64 noundef 13) #13
  %86 = icmp eq i32 %85, 0
  br i1 %86, label %87, label %93

87:                                               ; preds = %83
  %88 = load ptr, ptr %2, align 8
  %89 = getelementptr inbounds %struct.message, ptr %88, i32 0, i32 7
  %90 = load ptr, ptr %89, align 8
  %91 = load ptr, ptr %2, align 8
  %92 = getelementptr inbounds %struct.message, ptr %91, i32 0, i32 13
  store ptr %90, ptr %92, align 8
  br label %93

93:                                               ; preds = %87, %83, %78
  br label %94

94:                                               ; preds = %93, %72
  br label %95

95:                                               ; preds = %94, %53
  br label %96

96:                                               ; preds = %95, %22
  ret void
}