; Function Attrs: nounwind uwtable
define internal fastcc void @messageIsEncoding(ptr nocapture noundef %0) unnamed_addr #2 {
  %2 = getelementptr inbounds i8, ptr %0, i64 48
  %3 = load ptr, ptr %2, align 8
  %4 = load ptr, ptr %3, align 8
  %5 = tail call ptr @lineGetData(ptr noundef %4) #21
  %6 = getelementptr inbounds i8, ptr %0, i64 104
  %7 = load ptr, ptr %6, align 8
  %8 = icmp eq ptr %7, null
  br i1 %8, label %9, label %15

9:                                                ; preds = %1
  %10 = tail call i32 @strncasecmp(ptr noundef %5, ptr noundef nonnull @messageIsEncoding.encoding, i64 noundef 25) #23
  %11 = icmp eq i32 %10, 0
  br i1 %11, label %12, label %15

12:                                               ; preds = %9
  %13 = tail call ptr @strstr(ptr noundef nonnull dereferenceable(1) %5, ptr noundef nonnull dereferenceable(1) @.str.83) #23
  %14 = icmp eq ptr %13, null
  br i1 %14, label %.sink.split, label %15

15:                                               ; preds = %12, %9, %1
  %16 = getelementptr inbounds i8, ptr %0, i64 80
  %17 = load ptr, ptr %16, align 8
  %18 = icmp eq ptr %17, null
  br i1 %18, label %19, label %31

19:                                               ; preds = %15
  %20 = getelementptr inbounds i8, ptr %0, i64 56
  %21 = load ptr, ptr %20, align 8
  %.not = icmp eq ptr %21, null
  br i1 %.not, label %31, label %22

22:                                               ; preds = %19
  %23 = tail call i32 @strncasecmp(ptr noundef %5, ptr noundef nonnull @.str.91, i64 noundef 10) #23
  %24 = icmp eq i32 %23, 0
  br i1 %24, label %25, label %31

25:                                               ; preds = %22
  %26 = tail call i64 @strlen(ptr noundef nonnull dereferenceable(1) %5) #23
  %27 = getelementptr inbounds i8, ptr %21, i64 48
  %28 = load ptr, ptr %27, align 8
  %29 = tail call i32 @cli_compare_ftm_file(ptr noundef %5, i64 noundef %26, ptr noundef %28) #21
  %30 = icmp eq i32 %29, 561
  br i1 %30, label %.sink.split, label %31

31:                                               ; preds = %25, %22, %19, %15
  %32 = getelementptr inbounds i8, ptr %0, i64 88
  %33 = load ptr, ptr %32, align 8
  %34 = icmp eq ptr %33, null
  br i1 %34, label %35, label %40

35:                                               ; preds = %31
  %36 = tail call ptr @strstr(ptr noundef nonnull dereferenceable(1) %5, ptr noundef nonnull dereferenceable(1) @.str.92) #23
  %.not23 = icmp eq ptr %36, null
  br i1 %.not23, label %40, label %37

37:                                               ; preds = %35
  %38 = tail call fastcc i32 @simil(ptr noundef %5, ptr noundef nonnull @messageIsEncoding.binhex)
  %39 = icmp sgt i32 %38, 90
  br i1 %39, label %.sink.split, label %40

40:                                               ; preds = %37, %35, %31
  %41 = getelementptr inbounds i8, ptr %0, i64 96
  %42 = load ptr, ptr %41, align 8
  %43 = icmp eq ptr %42, null
  br i1 %43, label %44, label %48

44:                                               ; preds = %40
  %45 = tail call i32 @strncmp(ptr noundef nonnull dereferenceable(1) %5, ptr noundef nonnull dereferenceable(14) @.str.93, i64 noundef 13) #23
  %46 = icmp eq i32 %45, 0
  br i1 %46, label %.sink.split, label %48

.sink.split:                                      ; preds = %44, %37, %25, %12
  %.sink24 = phi ptr [ %6, %12 ], [ %16, %25 ], [ %32, %37 ], [ %41, %44 ]
  %47 = load ptr, ptr %2, align 8
  store ptr %47, ptr %.sink24, align 8
  br label %48

48:                                               ; preds = %.sink.split, %40, %44
  ret void
}